target datalayout = "e-m:e-p270:32:32-p271:32:32-p272:64:64-i64:64-i128:128-f80:128-n8:16:32:64-S128"
target triple = "x86_64-pc-linux-gnu"

%struct.MatroskaMuxContext = type { ptr, ptr, i32, %struct.ebml_stored_master, %struct.ebml_stored_master, %struct.ebml_stored_master, i64, ptr, i64, i64, i64, i64, ptr, %struct.mkv_seekhead, %struct.mkv_cues, i64, %struct.BlockContext, ptr, ptr, i32, i32, i32, i32, i32, i32, i64, i32, i32, i32, i32, i32, i32, i32, i32, [4 x i32] }
%struct.ebml_stored_master = type { ptr, i64 }
%struct.mkv_seekhead = type { i64, [7 x %struct.mkv_seekhead_entry], i32, i32 }
%struct.mkv_seekhead_entry = type { i32, i64 }
%struct.mkv_cues = type { ptr, i32 }
%struct.BlockContext = type { ptr, ptr, i16, i8, %struct.NALUList }
%struct.NALUList = type { ptr, i32, i32 }
%struct.AVIOContext = type { ptr, ptr, i32, ptr, ptr, ptr, ptr, ptr, ptr, i64, i32, i32, i32, i32, i32, i64, ptr, ptr, ptr, ptr, i32, i32, ptr, ptr, ptr, i32, ptr, i64, i64 }

@ff_log2_tab = external constant [256 x i8], align 16

; Function Attrs: alwaysinline nounwind willreturn memory(none) uwtable
define internal i32 @ff_log2_c(i32 noundef %0) #6 {
  %2 = alloca i32, align 4
  %3 = alloca i32, align 4
  store i32 %0, ptr %2, align 4, !tbaa !30
  call void @llvm.lifetime.start.p0(i64 4, ptr %3) #16
  store i32 0, ptr %3, align 4, !tbaa !30
  %4 = load i32, ptr %2, align 4, !tbaa !30
  %5 = and i32 %4, -65536
  %6 = icmp ne i32 %5, 0
  br i1 %6, label %7, label %12

7:                                                ; preds = %1
  %8 = load i32, ptr %2, align 4, !tbaa !30
  %9 = lshr i32 %8, 16
  store i32 %9, ptr %2, align 4, !tbaa !30
  %10 = load i32, ptr %3, align 4, !tbaa !30
  %11 = add nsw i32 %10, 16
  store i32 %11, ptr %3, align 4, !tbaa !30
  br label %12

12:                                               ; preds = %7, %1
  %13 = load i32, ptr %2, align 4, !tbaa !30
  %14 = and i32 %13, 65280
  %15 = icmp ne i32 %14, 0
  br i1 %15, label %16, label %21

16:                                               ; preds = %12
  %17 = load i32, ptr %2, align 4, !tbaa !30
  %18 = lshr i32 %17, 8
  store i32 %18, ptr %2, align 4, !tbaa !30
  %19 = load i32, ptr %3, align 4, !tbaa !30
  %20 = add nsw i32 %19, 8
  store i32 %20, ptr %3, align 4, !tbaa !30
  br label %21

21:                                               ; preds = %16, %12
  %22 = load i32, ptr %2, align 4, !tbaa !30
  %23 = zext i32 %22 to i64
  %24 = getelementptr inbounds nuw [256 x i8], ptr @ff_log2_tab, i64 0, i64 %23
  %25 = load i8, ptr %24, align 1, !tbaa !122
  %26 = zext i8 %25 to i32
  %27 = load i32, ptr %3, align 4, !tbaa !30
  %28 = add nsw i32 %27, %26
  store i32 %28, ptr %3, align 4, !tbaa !30
  %29 = load i32, ptr %3, align 4, !tbaa !30
  call void @llvm.lifetime.end.p0(i64 4, ptr %3) #16
  ret i32 %29
}

; Function Attrs: nounwind uwtable
define internal i32 @ebml_id_size(i32 noundef %0) #0 {
  %2 = alloca i32, align 4
  store i32 %0, ptr %2, align 4, !tbaa !30
  %3 = load i32, ptr %2, align 4, !tbaa !30
  %4 = call i32 @ff_log2_c(i32 noundef %3) #19
  %5 = add i32 %4, 7
  %6 = udiv i32 %5, 8
  ret i32 %6
}

; Function Attrs: nounwind uwtable
define internal void @put_ebml_binary(ptr noundef %0, i32 noundef %1, ptr noundef %2, i32 noundef %3) #0 {
  %5 = alloca ptr, align 8
  %6 = alloca i32, align 4
  %7 = alloca ptr, align 8
  %8 = alloca i32, align 4
  store ptr %0, ptr %5, align 8, !tbaa !29
  store i32 %1, ptr %6, align 4, !tbaa !30
  store ptr %2, ptr %7, align 8, !tbaa !208
  store i32 %3, ptr %8, align 4, !tbaa !30
  %9 = load ptr, ptr %5, align 8, !tbaa !29
  %10 = load i32, ptr %6, align 4, !tbaa !30
  call void @put_ebml_id(ptr noundef %9, i32 noundef %10)
  %11 = load ptr, ptr %5, align 8, !tbaa !29
  %12 = load i32, ptr %8, align 4, !tbaa !30
  %13 = sext i32 %12 to i64
  call void @put_ebml_length(ptr noundef %11, i64 noundef %13, i32 noundef 0)
  %14 = load ptr, ptr %5, align 8, !tbaa !29
  %15 = load ptr, ptr %7, align 8, !tbaa !208
  %16 = load i32, ptr %8, align 4, !tbaa !30
  call void @avio_write(ptr noundef %14, ptr noundef %15, i32 noundef %16)
  ret void
}

; Function Attrs: nounwind uwtable
define internal void @put_ebml_id(ptr noundef %0, i32 noundef %1) #0 {
  %3 = alloca ptr, align 8
  %4 = alloca i32, align 4
  %5 = alloca i32, align 4
  store ptr %0, ptr %3, align 8, !tbaa !29
  store i32 %1, ptr %4, align 4, !tbaa !30
  call void @llvm.lifetime.start.p0(i64 4, ptr %5) #16
  %6 = load i32, ptr %4, align 4, !tbaa !30
  %7 = call i32 @ebml_id_size(i32 noundef %6)
  store i32 %7, ptr %5, align 4, !tbaa !30
  br label %8

8:                                                ; preds = %12, %2
  %9 = load i32, ptr %5, align 4, !tbaa !30
  %10 = add nsw i32 %9, -1
  store i32 %10, ptr %5, align 4, !tbaa !30
  %11 = icmp ne i32 %9, 0
  br i1 %11, label %12, label %20

12:                                               ; preds = %8
  %13 = load ptr, ptr %3, align 8, !tbaa !29
  %14 = load i32, ptr %4, align 4, !tbaa !30
  %15 = load i32, ptr %5, align 4, !tbaa !30
  %16 = mul nsw i32 %15, 8
  %17 = lshr i32 %14, %16
  %18 = trunc i32 %17 to i8
  %19 = zext i8 %18 to i32
  call void @avio_w8(ptr noundef %13, i32 noundef %19)
  br label %8, !llvm.loop !140

20:                                               ; preds = %8
  call void @llvm.lifetime.end.p0(i64 4, ptr %5) #16
  ret void
}

; Function Attrs: nounwind uwtable
define internal void @mkv_add_seekhead_entry(ptr noundef %0, i32 noundef %1, i64 noundef %2) #0 {
  %4 = alloca ptr, align 8
  %5 = alloca i32, align 4
  %6 = alloca i64, align 8
  %7 = alloca ptr, align 8
  store ptr %0, ptr %4, align 8, !tbaa !26
  store i32 %1, ptr %5, align 4, !tbaa !30
  store i64 %2, ptr %6, align 8, !tbaa !79
  call void @llvm.lifetime.start.p0(i64 8, ptr %7) #16
  %8 = load ptr, ptr %4, align 8, !tbaa !26
  %9 = getelementptr inbounds nuw %struct.MatroskaMuxContext, ptr %8, i32 0, i32 13
  store ptr %9, ptr %7, align 8, !tbaa !169
  %10 = load i32, ptr %5, align 4, !tbaa !30
  %11 = load ptr, ptr %7, align 8, !tbaa !169
  %12 = getelementptr inbounds nuw %struct.mkv_seekhead, ptr %11, i32 0, i32 1
  %13 = load ptr, ptr %7, align 8, !tbaa !169
  %14 = getelementptr inbounds nuw %struct.mkv_seekhead, ptr %13, i32 0, i32 2
  %15 = load i32, ptr %14, align 8, !tbaa !172
  %16 = sext i32 %15 to i64
  %17 = getelementptr inbounds [7 x %struct.mkv_seekhead_entry], ptr %12, i64 0, i64 %16
  %18 = getelementptr inbounds nuw %struct.mkv_seekhead_entry, ptr %17, i32 0, i32 0
  store i32 %10, ptr %18, align 8, !tbaa !175
  %19 = load i64, ptr %6, align 8, !tbaa !79
  %20 = load ptr, ptr %4, align 8, !tbaa !26
  %21 = getelementptr inbounds nuw %struct.MatroskaMuxContext, ptr %20, i32 0, i32 6
  %22 = load i64, ptr %21, align 8, !tbaa !65
  %23 = sub i64 %19, %22
  %24 = load ptr, ptr %7, align 8, !tbaa !169
  %25 = getelementptr inbounds nuw %struct.mkv_seekhead, ptr %24, i32 0, i32 1
  %26 = load ptr, ptr %7, align 8, !tbaa !169
  %27 = getelementptr inbounds nuw %struct.mkv_seekhead, ptr %26, i32 0, i32 2
  %28 = load i32, ptr %27, align 8, !tbaa !172
  %29 = add nsw i32 %28, 1
  store i32 %29, ptr %27, align 8, !tbaa !172
  %30 = sext i32 %28 to i64
  %31 = getelementptr inbounds [7 x %struct.mkv_seekhead_entry], ptr %25, i64 0, i64 %30
  %32 = getelementptr inbounds nuw %struct.mkv_seekhead_entry, ptr %31, i32 0, i32 1
  store i64 %23, ptr %32, align 8, !tbaa !177
  call void @llvm.lifetime.end.p0(i64 8, ptr %7) #16
  ret void
}

; Function Attrs: alwaysinline nounwind uwtable
define internal i64 @avio_tell(ptr noundef %0) #3 {
  %2 = alloca ptr, align 8
  store ptr %0, ptr %2, align 8, !tbaa !29
  %3 = load ptr, ptr %2, align 8, !tbaa !29
  %4 = call i64 @avio_seek(ptr noundef %3, i64 noundef 0, i32 noundef 1)
  ret i64 %4
}

; Function Attrs: nounwind uwtable
define internal i32 @end_ebml_master_crc32(ptr noundef %0, ptr noundef %1, ptr noundef %2, i32 noundef %3, i32 noundef %4, i32 noundef %5, i32 noundef %6) #0 {
  %8 = alloca ptr, align 8
  %9 = alloca ptr, align 8
  %10 = alloca ptr, align 8
  %11 = alloca i32, align 4
  %12 = alloca i32, align 4
  %13 = alloca i32, align 4
  %14 = alloca i32, align 4
  %15 = alloca ptr, align 8
  %16 = alloca [4 x i8], align 1
  %17 = alloca i32, align 4
  %18 = alloca i32, align 4
  %19 = alloca i32, align 4
  store ptr %0, ptr %8, align 8, !tbaa !29
  store ptr %1, ptr %9, align 8, !tbaa !155
  store ptr %2, ptr %10, align 8, !tbaa !26
  store i32 %3, ptr %11, align 4, !tbaa !30
  store i32 %4, ptr %12, align 4, !tbaa !30
  store i32 %5, ptr %13, align 4, !tbaa !30
  store i32 %6, ptr %14, align 4, !tbaa !30
  call void @llvm.lifetime.start.p0(i64 8, ptr %15) #16
  call void @llvm.lifetime.start.p0(i64 4, ptr %16) #16
  call void @llvm.lifetime.start.p0(i64 4, ptr %17) #16
  call void @llvm.lifetime.start.p0(i64 4, ptr %18) #16
  call void @llvm.lifetime.start.p0(i64 4, ptr %19) #16
  store i32 0, ptr %19, align 4, !tbaa !30
  %20 = load ptr, ptr %9, align 8, !tbaa !155
  %21 = load ptr, ptr %20, align 8, !tbaa !29
  %22 = call i32 @avio_get_dyn_buf(ptr noundef %21, ptr noundef %15)
  store i32 %22, ptr %18, align 4, !tbaa !30
  %23 = load ptr, ptr %9, align 8, !tbaa !155
  %24 = load ptr, ptr %23, align 8, !tbaa !29
  %25 = getelementptr inbounds nuw %struct.AVIOContext, ptr %24, i32 0, i32 11
  %26 = load i32, ptr %25, align 4, !tbaa !213
  store i32 %26, ptr %17, align 4, !tbaa !30
  %27 = icmp slt i32 %26, 0
  br i1 %27, label %28, label %29

28:                                               ; preds = %7
  br label %72

29:                                               ; preds = %7
  %30 = load i32, ptr %14, align 4, !tbaa !30
  %31 = icmp ne i32 %30, 0
  br i1 %31, label %32, label %37

32:                                               ; preds = %29
  %33 = load ptr, ptr %10, align 8, !tbaa !26
  %34 = load i32, ptr %11, align 4, !tbaa !30
  %35 = load ptr, ptr %8, align 8, !tbaa !29
  %36 = call i64 @avio_tell(ptr noundef %35)
  call void @mkv_add_seekhead_entry(ptr noundef %33, i32 noundef %34, i64 noundef %36)
  br label %37

37:                                               ; preds = %32, %29
  %38 = load ptr, ptr %8, align 8, !tbaa !29
  %39 = load i32, ptr %11, align 4, !tbaa !30
  call void @put_ebml_id(ptr noundef %38, i32 noundef %39)
  %40 = load ptr, ptr %8, align 8, !tbaa !29
  %41 = load i32, ptr %18, align 4, !tbaa !30
  %42 = sext i32 %41 to i64
  %43 = load i32, ptr %12, align 4, !tbaa !30
  call void @put_ebml_length(ptr noundef %40, i64 noundef %42, i32 noundef %43)
  %44 = load ptr, ptr %10, align 8, !tbaa !26
  %45 = getelementptr inbounds nuw %struct.MatroskaMuxContext, ptr %44, i32 0, i32 26
  %46 = load i32, ptr %45, align 8, !tbaa !114
  %47 = icmp ne i32 %46, 0
  br i1 %47, label %48, label %63

48:                                               ; preds = %37
  store i32 6, ptr %19, align 4, !tbaa !30
  %49 = call ptr @av_crc_get_table(i32 noundef 4)
  %50 = load ptr, ptr %15, align 8, !tbaa !134
  %51 = load i32, ptr %19, align 4, !tbaa !30
  %52 = sext i32 %51 to i64
  %53 = getelementptr inbounds i8, ptr %50, i64 %52
  %54 = load i32, ptr %18, align 4, !tbaa !30
  %55 = load i32, ptr %19, align 4, !tbaa !30
  %56 = sub nsw i32 %54, %55
  %57 = sext i32 %56 to i64
  %58 = call i32 @av_crc(ptr noundef %49, i32 noundef -1, ptr noundef %53, i64 noundef %57) #18
  %59 = xor i32 %58, -1
  %60 = getelementptr inbounds [4 x i8], ptr %16, i64 0, i64 0
  store i32 %59, ptr %60, align 1, !tbaa !122
  %61 = load ptr, ptr %8, align 8, !tbaa !29
  %62 = getelementptr inbounds [4 x i8], ptr %16, i64 0, i64 0
  call void @put_ebml_binary(ptr noundef %61, i32 noundef 191, ptr noundef %62, i32 noundef 4)
  br label %63

63:                                               ; preds = %48, %37
  %64 = load ptr, ptr %8, align 8, !tbaa !29
  %65 = load ptr, ptr %15, align 8, !tbaa !134
  %66 = load i32, ptr %19, align 4, !tbaa !30
  %67 = sext i32 %66 to i64
  %68 = getelementptr inbounds i8, ptr %65, i64 %67
  %69 = load i32, ptr %18, align 4, !tbaa !30
  %70 = load i32, ptr %19, align 4, !tbaa !30
  %71 = sub nsw i32 %69, %70
  call void @avio_write(ptr noundef %64, ptr noundef %68, i32 noundef %71)
  br label %72

72:                                               ; preds = %63, %28
  %73 = load i32, ptr %13, align 4, !tbaa !30
  %74 = icmp ne i32 %73, 0
  br i1 %74, label %75, label %78

75:                                               ; preds = %72
  %76 = load ptr, ptr %9, align 8, !tbaa !155
  %77 = load ptr, ptr %76, align 8, !tbaa !29
  call void @ffio_reset_dyn_buf(ptr noundef %77)
  br label %80

78:                                               ; preds = %72
  %79 = load ptr, ptr %9, align 8, !tbaa !155
  call void @ffio_free_dyn_buf(ptr noundef %79)
  br label %80

80:                                               ; preds = %78, %75
  %81 = load i32, ptr %17, align 4, !tbaa !30
  call void @llvm.lifetime.end.p0(i64 4, ptr %19) #16
  call void @llvm.lifetime.end.p0(i64 4, ptr %18) #16
  call void @llvm.lifetime.end.p0(i64 4, ptr %17) #16
  call void @llvm.lifetime.end.p0(i64 4, ptr %16) #16
  call void @llvm.lifetime.end.p0(i64 8, ptr %15) #16
  ret i32 %81
}