; Function Attrs: nounwind uwtable
define internal fastcc i32 @end_ebml_master_crc32(ptr noundef %0, ptr noundef %1, ptr noundef captures(none) %2, i32 noundef range(i32 272869232, 524531318) %3, i32 noundef range(i32 -2147483647, -2147483648) %4, i32 noundef range(i32 0, 2) %5, i32 noundef range(i32 0, 2) %6) unnamed_addr #0 {
  %8 = alloca ptr, align 8
  %9 = alloca [4 x i8], align 4
  call void @llvm.lifetime.start.p0(i64 8, ptr nonnull %8) #14
  call void @llvm.lifetime.start.p0(i64 4, ptr nonnull %9) #14
  %10 = load ptr, ptr %1, align 8, !tbaa !57
  %11 = call i32 @avio_get_dyn_buf(ptr noundef %10, ptr noundef nonnull %8) #14
  %12 = load ptr, ptr %1, align 8, !tbaa !57
  %13 = getelementptr inbounds nuw i8, ptr %12, i64 84
  %14 = load i32, ptr %13, align 4, !tbaa !225
  %15 = icmp slt i32 %14, 0
  br i1 %15, label %64, label %16

16:                                               ; preds = %7
  %.not = icmp eq i32 %6, 0
  br i1 %.not, label %.lr.ph.preheader.i, label %17

17:                                               ; preds = %16
  %18 = call i64 @avio_seek(ptr noundef %0, i64 noundef 0, i32 noundef 1) #14
  %19 = getelementptr inbounds nuw i8, ptr %2, i64 136
  %20 = getelementptr inbounds nuw i8, ptr %2, i64 248
  %21 = load i32, ptr %20, align 8, !tbaa !264
  %22 = sext i32 %21 to i64
  %23 = getelementptr inbounds [7 x %struct.mkv_seekhead_entry], ptr %19, i64 0, i64 %22
  store i32 %3, ptr %23, align 8, !tbaa !265
  %24 = getelementptr inbounds nuw i8, ptr %2, i64 72
  %25 = load i64, ptr %24, align 8, !tbaa !53
  %26 = sub i64 %18, %25
  %27 = add nsw i32 %21, 1
  store i32 %27, ptr %20, align 8, !tbaa !264
  %.idx.i = shl nsw i64 %22, 4
  %28 = getelementptr i8, ptr %19, i64 %.idx.i
  %29 = getelementptr i8, ptr %28, i64 8
  store i64 %26, ptr %29, align 8, !tbaa !267
  br label %.lr.ph.preheader.i

.lr.ph.preheader.i:                               ; preds = %17, %16
  %30 = lshr i32 %3, 24
  %31 = zext nneg i32 %30 to i64
  %32 = getelementptr inbounds nuw [256 x i8], ptr @ff_log2_tab, i64 0, i64 %31
  %33 = load i8, ptr %32, align 1, !tbaa !50
  %34 = zext i8 %33 to i32
  %35 = add nuw nsw i32 %34, 31
  %36 = lshr i32 %35, 3
  br label %.lr.ph.i

.lr.ph.i:                                         ; preds = %.lr.ph.i, %.lr.ph.preheader.i
  %.05.i = phi i32 [ %37, %.lr.ph.i ], [ %36, %.lr.ph.preheader.i ]
  %37 = add nsw i32 %.05.i, -1
  %38 = shl nsw i32 %37, 3
  %39 = lshr i32 %3, %38
  %40 = and i32 %39, 255
  call void @avio_w8(ptr noundef %0, i32 noundef %40) #14
  %.not.i = icmp eq i32 %37, 0
  br i1 %.not.i, label %put_ebml_id.exit, label %.lr.ph.i, !llvm.loop !51

put_ebml_id.exit:                                 ; preds = %.lr.ph.i
  %41 = sext i32 %11 to i64
  call fastcc void @put_ebml_length(ptr noundef %0, i64 noundef %41, i32 noundef %4)
  %42 = getelementptr inbounds nuw i8, ptr %2, i64 368
  %43 = load i32, ptr %42, align 8, !tbaa !59
  %.not23 = icmp eq i32 %43, 0
  br i1 %.not23, label %59, label %44

44:                                               ; preds = %put_ebml_id.exit
  %45 = call ptr @av_crc_get_table(i32 noundef 4) #14
  %46 = load ptr, ptr %8, align 8, !tbaa !118
  %47 = getelementptr inbounds nuw i8, ptr %46, i64 6
  %48 = add nsw i32 %11, -6
  %49 = sext i32 %48 to i64
  %50 = call i32 @av_crc(ptr noundef %45, i32 noundef -1, ptr noundef nonnull %47, i64 noundef %49) #15
  %51 = xor i32 %50, -1
  store i32 %51, ptr %9, align 4, !tbaa !50
  %52 = load i8, ptr getelementptr inbounds nuw (i8, ptr @ff_log2_tab, i64 191), align 1, !tbaa !50
  %.not4.i.i = icmp eq i8 %52, 0
  br i1 %.not4.i.i, label %put_ebml_binary.exit, label %.lr.ph.preheader.i.i

.lr.ph.preheader.i.i:                             ; preds = %44
  %53 = zext i8 %52 to i32
  %54 = add nuw nsw i32 %53, 7
  %55 = lshr i32 %54, 3
  br label %.lr.ph.i.i

.lr.ph.i.i:                                       ; preds = %.lr.ph.i.i, %.lr.ph.preheader.i.i
  %.05.i.i = phi i32 [ %56, %.lr.ph.i.i ], [ %55, %.lr.ph.preheader.i.i ]
  %56 = add nsw i32 %.05.i.i, -1
  %57 = shl nsw i32 %56, 3
  %58 = lshr i32 191, %57
  call void @avio_w8(ptr noundef %0, i32 noundef %58) #14
  %.not.i.i = icmp eq i32 %56, 0
  br i1 %.not.i.i, label %put_ebml_binary.exit, label %.lr.ph.i.i, !llvm.loop !51

put_ebml_binary.exit:                             ; preds = %.lr.ph.i.i, %44
  call void @avio_w8(ptr noundef %0, i32 noundef 132) #14
  call void @avio_write(ptr noundef %0, ptr noundef nonnull %9, i32 noundef 4) #14
  br label %59

59:                                               ; preds = %put_ebml_binary.exit, %put_ebml_id.exit
  %.0 = phi i32 [ 6, %put_ebml_binary.exit ], [ 0, %put_ebml_id.exit ]
  %60 = load ptr, ptr %8, align 8, !tbaa !118
  %61 = zext nneg i32 %.0 to i64
  %62 = getelementptr inbounds nuw i8, ptr %60, i64 %61
  %63 = sub nsw i32 %11, %.0
  call void @avio_write(ptr noundef %0, ptr noundef %62, i32 noundef %63) #14
  br label %64

64:                                               ; preds = %7, %59
  %.not24 = icmp eq i32 %5, 0
  br i1 %.not24, label %67, label %65

65:                                               ; preds = %64
  %66 = load ptr, ptr %1, align 8, !tbaa !57
  call void @ffio_reset_dyn_buf(ptr noundef %66) #14
  br label %68

67:                                               ; preds = %64
  call void @ffio_free_dyn_buf(ptr noundef nonnull %1) #14
  br label %68

68:                                               ; preds = %67, %65
  call void @llvm.lifetime.end.p0(i64 4, ptr nonnull %9) #14
  call void @llvm.lifetime.end.p0(i64 8, ptr nonnull %8) #14
  ret i32 %14
}